; Function Attrs: mustprogress uwtable
define void @_ZN4LIEF2PE3TLSC2ERKNS0_7details8pe64_tlsE(ptr noundef nonnull align 8 dereferenceable(112) %0, ptr nocapture noundef nonnull readonly align 1 dereferenceable(40) %1) unnamed_addr #3 align 2 personality ptr @__gxx_personality_v0 {
  tail call void @_ZN4LIEF6ObjectC2Ev(ptr noundef nonnull align 8 dereferenceable(8) %0)
  store ptr getelementptr inbounds ({ [7 x ptr] }, ptr @_ZTVN4LIEF2PE3TLSE, i64 0, i32 0, i64 2), ptr %0, align 8
  %3 = getelementptr inbounds i8, ptr %0, i64 8
  tail call void @llvm.memset.p0.i64(ptr noundef nonnull align 8 dereferenceable(24) %3, i8 0, i64 24, i1 false)
  %4 = getelementptr inbounds i8, ptr %0, i64 32
  %5 = getelementptr inbounds i8, ptr %1, i64 8
  %6 = load i64, ptr %1, align 8
  store i64 %6, ptr %4, align 8
  %7 = getelementptr inbounds i8, ptr %0, i64 40
  %8 = load i64, ptr %5, align 8
  store i64 %8, ptr %7, align 8
  %9 = getelementptr inbounds i8, ptr %0, i64 48
  %10 = getelementptr inbounds i8, ptr %1, i64 16
  %11 = load i64, ptr %10, align 1
  store i64 %11, ptr %9, align 8
  %12 = getelementptr inbounds i8, ptr %0, i64 56
  %13 = getelementptr inbounds i8, ptr %1, i64 24
  %14 = load i64, ptr %13, align 1
  store i64 %14, ptr %12, align 8
  %15 = getelementptr inbounds i8, ptr %0, i64 64
  %16 = getelementptr inbounds i8, ptr %1, i64 32
  %17 = load i32, ptr %16, align 1
  store i32 %17, ptr %15, align 8
  %18 = getelementptr inbounds i8, ptr %0, i64 68
  %19 = getelementptr inbounds i8, ptr %1, i64 36
  %20 = load i32, ptr %19, align 1
  store i32 %20, ptr %18, align 4
  %21 = getelementptr inbounds i8, ptr %0, i64 72
  tail call void @llvm.memset.p0.i64(ptr noundef nonnull align 8 dereferenceable(40) %21, i8 0, i64 40, i1 false)
  ret void
}